target datalayout = "e-m:e-p270:32:32-p271:32:32-p272:64:64-i64:64-i128:128-f80:128-n8:16:32:64-S128"
target triple = "x86_64-pc-linux-gnu"

%struct.HTable = type { i32, ptr }
%struct.Module_ = type { ptr, ptr, ptr, i16, i32, ptr, %struct.HTable, ptr, ptr, ptr, ptr, ptr, ptr, ptr, ptr, ptr }
%union.SourceSpan = type { i64 }
%struct.BuildTarget = type { i32, ptr, ptr, ptr, ptr, ptr, ptr, ptr, ptr, ptr, ptr, ptr, ptr, ptr, ptr, ptr, ptr, ptr, ptr, i8, i8, i8, i8, i8, i8, i8, i8, i8, i8, i8, i8, i8, i8, i8, i8, i8, i8, i8, i8, i32, i32, i32, i32, i32, i32, i32, i32, i32, i32, i32, i32, i32, i32, i32, i32, i32, i32, ptr, ptr, ptr, ptr, ptr, ptr, ptr, ptr, ptr, ptr, %struct.anon.90, %struct.anon.91, %struct.anon.92, %struct.anon.93 }
%struct.anon.90 = type { i16, i32, i32, i32 }
%struct.anon.91 = type { ptr, ptr, ptr, ptr }
%struct.anon.92 = type { ptr, ptr, i32, i8 }
%struct.anon.93 = type { ptr, ptr }
%struct.VHeader_ = type { i32, i32, [0 x i8] }
%struct.CompilationUnit_ = type { ptr, ptr, ptr, ptr, ptr, ptr, ptr, ptr, ptr, ptr, i32, ptr, i8, i8, i8, i8, ptr, ptr, ptr, ptr, ptr, ptr, ptr, ptr, ptr, ptr, ptr, ptr, %struct.HTable, i32, ptr, ptr, %struct.anon.85 }
%struct.anon.85 = type { ptr, ptr }
%struct.Decl_ = type { ptr, ptr, %union.SourceSpan, i64, %union.anon, i32, %union.anon.0, i64, ptr, ptr, ptr, %union.anon.1 }
%union.anon = type { ptr }
%union.anon.0 = type { i16 }
%union.anon.1 = type { %struct.FuncDecl }
%struct.FuncDecl = type { i32, [4 x i8], %struct.Signature_, i32, i32, %union.anon.8 }
%struct.Signature_ = type <{ %struct.CalleeAttributes, i16, i8, i32, i32, [4 x i8], ptr }>
%struct.CalleeAttributes = type { i8 }
%union.anon.8 = type { %struct.anon.9 }
%struct.anon.9 = type { i16, %union.anon.10 }
%union.anon.10 = type { ptr }
%struct.SemaContext_ = type { ptr, ptr, ptr, %struct.CallEnv, ptr, %union.SourceSpan, i32, i32, ptr, i32, ptr, i32, i32, ptr, ptr, i32, %struct.anon.86, ptr, ptr, ptr, %struct.DynamicScope_, ptr }
%struct.CallEnv = type { i16, ptr, %union.anon.60 }
%union.anon.60 = type { ptr }
%struct.anon.86 = type { i32, ptr, ptr, ptr, ptr, ptr, ptr, ptr, ptr, ptr, i8, ptr }
%struct.DynamicScope_ = type { i32, i8, i32, i32, i32, i32, i32, ptr, i32 }

@active_target = external global %struct.BuildTarget, align 8
@.str.27 = private unnamed_addr constant [45 x i8] c"'extern' functions should never have a body.\00", align 1

; Function Attrs: nounwind uwtable
define internal ptr @vec_new_(i64 noundef %0, i64 noundef %1) #0 {
  %3 = alloca i64, align 8
  %4 = alloca i64, align 8
  %5 = alloca ptr, align 8
  store i64 %0, ptr %3, align 8
  store i64 %1, ptr %4, align 8
  %6 = load i64, ptr %3, align 8
  %7 = load i64, ptr %4, align 8
  %8 = mul i64 %6, %7
  %9 = add i64 %8, 8
  %10 = call ptr @calloc_arena(i64 noundef %9)
  store ptr %10, ptr %5, align 8
  %11 = load i64, ptr %4, align 8
  %12 = trunc i64 %11 to i32
  %13 = load ptr, ptr %5, align 8
  %14 = getelementptr inbounds %struct.VHeader_, ptr %13, i32 0, i32 1
  store i32 %12, ptr %14, align 4
  %15 = load ptr, ptr %5, align 8
  ret ptr %15
}

; Function Attrs: nounwind uwtable
define internal ptr @expand_(ptr noundef %0, i64 noundef %1) #0 {
  %3 = alloca ptr, align 8
  %4 = alloca i64, align 8
  %5 = alloca ptr, align 8
  %6 = alloca ptr, align 8
  %7 = alloca i64, align 8
  store ptr %0, ptr %3, align 8
  store i64 %1, ptr %4, align 8
  %8 = load ptr, ptr %3, align 8
  %9 = icmp ne ptr %8, null
  br i1 %9, label %13, label %10

10:                                               ; preds = %2
  %11 = load i64, ptr %4, align 8
  %12 = call ptr @vec_new_(i64 noundef %11, i64 noundef 8)
  store ptr %12, ptr %5, align 8
  br label %16

13:                                               ; preds = %2
  %14 = load ptr, ptr %3, align 8
  %15 = getelementptr inbounds %struct.VHeader_, ptr %14, i64 -1
  store ptr %15, ptr %5, align 8
  br label %16

16:                                               ; preds = %13, %10
  %17 = load ptr, ptr %5, align 8
  %18 = getelementptr inbounds %struct.VHeader_, ptr %17, i32 0, i32 0
  %19 = load i32, ptr %18, align 4
  %20 = load ptr, ptr %5, align 8
  %21 = getelementptr inbounds %struct.VHeader_, ptr %20, i32 0, i32 1
  %22 = load i32, ptr %21, align 4
  %23 = icmp eq i32 %19, %22
  br i1 %23, label %24, label %49

24:                                               ; preds = %16
  %25 = load i64, ptr %4, align 8
  %26 = load ptr, ptr %5, align 8
  %27 = getelementptr inbounds %struct.VHeader_, ptr %26, i32 0, i32 1
  %28 = load i32, ptr %27, align 4
  %29 = shl i32 %28, 1
  %30 = zext i32 %29 to i64
  %31 = call ptr @vec_new_(i64 noundef %25, i64 noundef %30)
  store ptr %31, ptr %6, align 8
  %32 = load i64, ptr %4, align 8
  %33 = load ptr, ptr %5, align 8
  %34 = getelementptr inbounds %struct.VHeader_, ptr %33, i32 0, i32 1
  %35 = load i32, ptr %34, align 4
  %36 = zext i32 %35 to i64
  %37 = mul i64 %32, %36
  %38 = add i64 %37, 8
  store i64 %38, ptr %7, align 8
  %39 = load ptr, ptr %6, align 8
  %40 = load ptr, ptr %5, align 8
  %41 = load i64, ptr %7, align 8
  call void @llvm.memcpy.p0.p0.i64(ptr align 4 %39, ptr align 4 %40, i64 %41, i1 false)
  %42 = load ptr, ptr %6, align 8
  store ptr %42, ptr %5, align 8
  %43 = load ptr, ptr %5, align 8
  %44 = getelementptr inbounds %struct.VHeader_, ptr %43, i32 0, i32 1
  %45 = load i32, ptr %44, align 4
  %46 = shl i32 %45, 1
  %47 = load ptr, ptr %6, align 8
  %48 = getelementptr inbounds %struct.VHeader_, ptr %47, i32 0, i32 1
  store i32 %46, ptr %48, align 4
  br label %49

49:                                               ; preds = %24, %16
  %50 = load ptr, ptr %5, align 8
  %51 = getelementptr inbounds %struct.VHeader_, ptr %50, i32 0, i32 0
  %52 = load i32, ptr %51, align 4
  %53 = add i32 %52, 1
  store i32 %53, ptr %51, align 4
  %54 = load ptr, ptr %5, align 8
  %55 = getelementptr inbounds %struct.VHeader_, ptr %54, i64 1
  ret ptr %55
}

; Function Attrs: nounwind uwtable
define internal zeroext i1 @analyse_func_body(ptr noundef %0, ptr noundef %1) #0 {
  %3 = alloca ptr, align 8
  %4 = alloca ptr, align 8
  %5 = alloca i1, align 1
  %6 = alloca ptr, align 8
  %7 = alloca ptr, align 8
  store ptr %0, ptr %6, align 8
  store ptr %1, ptr %7, align 8
  %8 = load ptr, ptr %7, align 8
  %9 = getelementptr inbounds %struct.Decl_, ptr %8, i32 0, i32 11
  %10 = getelementptr inbounds %struct.FuncDecl, ptr %9, i32 0, i32 3
  %11 = load i32, ptr %10, align 8
  %12 = icmp ne i32 %11, 0
  br i1 %12, label %14, label %13

13:                                               ; preds = %2
  store i1 true, ptr %5, align 1
  br label %76

14:                                               ; preds = %2
  %15 = load ptr, ptr %7, align 8
  %16 = getelementptr inbounds %struct.Decl_, ptr %15, i32 0, i32 3
  %17 = load i64, ptr %16, align 8
  %18 = lshr i64 %17, 14
  %19 = and i64 %18, 1
  %20 = trunc i64 %19 to i1
  br i1 %20, label %21, label %36

21:                                               ; preds = %14
  %22 = load ptr, ptr %7, align 8
  %23 = getelementptr inbounds %struct.Decl_, ptr %22, i32 0, i32 2
  %24 = getelementptr inbounds %union.SourceSpan, ptr %23, i32 0, i32 0
  %25 = load i64, ptr %24, align 8
  call void (i64, ptr, ...) @sema_error_at(i64 %25, ptr noundef @.str.27)
  %26 = load ptr, ptr %7, align 8
  store ptr %26, ptr %3, align 8
  %27 = load ptr, ptr %3, align 8
  %28 = getelementptr inbounds %struct.Decl_, ptr %27, i32 0, i32 3
  %29 = load i64, ptr %28, align 8
  %30 = and i64 %29, -128
  store i64 %30, ptr %28, align 8
  %31 = load ptr, ptr %3, align 8
  %32 = getelementptr inbounds %struct.Decl_, ptr %31, i32 0, i32 3
  %33 = load i64, ptr %32, align 8
  %34 = and i64 %33, -897
  %35 = or i64 %34, 256
  store i64 %35, ptr %32, align 8
  store i1 false, ptr %5, align 1
  br label %76

36:                                               ; preds = %14
  %37 = load ptr, ptr %7, align 8
  %38 = getelementptr inbounds %struct.Decl_, ptr %37, i32 0, i32 11
  %39 = getelementptr inbounds %struct.FuncDecl, ptr %38, i32 0, i32 5
  %40 = load i16, ptr %39, align 8
  %41 = lshr i16 %40, 5
  %42 = and i16 %41, 1
  %43 = trunc i16 %42 to i1
  br i1 %43, label %44, label %48

44:                                               ; preds = %36
  %45 = load i8, ptr getelementptr inbounds (%struct.BuildTarget, ptr @active_target, i32 0, i32 33), align 2
  %46 = trunc i8 %45 to i1
  br i1 %46, label %48, label %47

47:                                               ; preds = %44
  store i1 true, ptr %5, align 1
  br label %76

48:                                               ; preds = %44, %36
  %49 = load ptr, ptr %7, align 8
  %50 = getelementptr inbounds %struct.Decl_, ptr %49, i32 0, i32 11
  %51 = getelementptr inbounds %struct.FuncDecl, ptr %50, i32 0, i32 5
  %52 = load i16, ptr %51, align 8
  %53 = lshr i16 %52, 4
  %54 = and i16 %53, 1
  %55 = trunc i16 %54 to i1
  br i1 %55, label %56, label %60

56:                                               ; preds = %48
  %57 = load i8, ptr getelementptr inbounds (%struct.BuildTarget, ptr @active_target, i32 0, i32 32), align 1
  %58 = trunc i8 %57 to i1
  br i1 %58, label %60, label %59

59:                                               ; preds = %56
  store i1 true, ptr %5, align 1
  br label %76

60:                                               ; preds = %56, %48
  %61 = load ptr, ptr %6, align 8
  %62 = load ptr, ptr %7, align 8
  %63 = call zeroext i1 @sema_analyse_function_body(ptr noundef %61, ptr noundef %62)
  br i1 %63, label %75, label %64

64:                                               ; preds = %60
  %65 = load ptr, ptr %7, align 8
  store ptr %65, ptr %4, align 8
  %66 = load ptr, ptr %4, align 8
  %67 = getelementptr inbounds %struct.Decl_, ptr %66, i32 0, i32 3
  %68 = load i64, ptr %67, align 8
  %69 = and i64 %68, -128
  store i64 %69, ptr %67, align 8
  %70 = load ptr, ptr %4, align 8
  %71 = getelementptr inbounds %struct.Decl_, ptr %70, i32 0, i32 3
  %72 = load i64, ptr %71, align 8
  %73 = and i64 %72, -897
  %74 = or i64 %73, 256
  store i64 %74, ptr %71, align 8
  store i1 false, ptr %5, align 1
  br label %76

75:                                               ; preds = %60
  store i1 true, ptr %5, align 1
  br label %76

76:                                               ; preds = %75, %64, %59, %47, %21, %13
  %77 = load i1, ptr %5, align 1
  ret i1 %77
}

; Function Attrs: nounwind uwtable
define internal void @vec_pop(ptr noundef %0) #0 {
  %2 = alloca ptr, align 8
  %3 = alloca ptr, align 8
  store ptr %0, ptr %2, align 8
  %4 = load ptr, ptr %2, align 8
  store ptr %4, ptr %3, align 8
  %5 = load ptr, ptr %3, align 8
  %6 = getelementptr inbounds %struct.VHeader_, ptr %5, i64 -1
  %7 = getelementptr inbounds %struct.VHeader_, ptr %6, i32 0, i32 0
  %8 = load i32, ptr %7, align 4
  %9 = add i32 %8, -1
  store i32 %9, ptr %7, align 4
  ret void
}

; Function Attrs: nounwind uwtable
define dso_local void @sema_analysis_pass_lambda(ptr noundef %0) #0 {
  %2 = alloca i32, align 4
  %3 = alloca ptr, align 8
  %4 = alloca ptr, align 8
  %5 = alloca i32, align 4
  %6 = alloca ptr, align 8
  %7 = alloca ptr, align 8
  %8 = alloca i32, align 4
  %9 = alloca ptr, align 8
  %10 = alloca ptr, align 8
  %11 = alloca i32, align 4
  %12 = alloca ptr, align 8
  %13 = alloca ptr, align 8
  %14 = alloca ptr, align 8
  %15 = alloca i32, align 4
  %16 = alloca i32, align 4
  %17 = alloca ptr, align 8
  %18 = alloca i32, align 4
  %19 = alloca ptr, align 8
  %20 = alloca ptr, align 8
  %21 = alloca %struct.SemaContext_, align 8
  %22 = alloca ptr, align 8
  store ptr %0, ptr %14, align 8
  br label %23

23:                                               ; preds = %1
  br label %24

24:                                               ; preds = %23
  store i32 0, ptr %15, align 4
  %25 = load ptr, ptr %14, align 8
  %26 = getelementptr inbounds %struct.Module_, ptr %25, i32 0, i32 7
  %27 = load ptr, ptr %26, align 8
  store ptr %27, ptr %3, align 8
  %28 = load ptr, ptr %3, align 8
  %29 = icmp ne ptr %28, null
  br i1 %29, label %31, label %30

30:                                               ; preds = %24
  store i32 0, ptr %2, align 4
  br label %36

31:                                               ; preds = %24
  %32 = load ptr, ptr %3, align 8
  store ptr %32, ptr %4, align 8
  %33 = load ptr, ptr %4, align 8
  %34 = getelementptr inbounds %struct.VHeader_, ptr %33, i64 -1
  %35 = load i32, ptr %34, align 4
  store i32 %35, ptr %2, align 4
  br label %36

36:                                               ; preds = %31, %30
  %37 = load i32, ptr %2, align 4
  store i32 %37, ptr %16, align 4
  br label %38

38:                                               ; preds = %128, %36
  %39 = load i32, ptr %15, align 4
  %40 = load i32, ptr %16, align 4
  %41 = icmp ult i32 %39, %40
  br i1 %41, label %42, label %131

42:                                               ; preds = %38
  br label %43

43:                                               ; preds = %126, %42
  %44 = load ptr, ptr %14, align 8
  %45 = getelementptr inbounds %struct.Module_, ptr %44, i32 0, i32 14
  %46 = load ptr, ptr %45, align 8
  store ptr %46, ptr %6, align 8
  %47 = load ptr, ptr %6, align 8
  %48 = icmp ne ptr %47, null
  br i1 %48, label %50, label %49

49:                                               ; preds = %43
  store i32 0, ptr %5, align 4
  br label %55

50:                                               ; preds = %43
  %51 = load ptr, ptr %6, align 8
  store ptr %51, ptr %7, align 8
  %52 = load ptr, ptr %7, align 8
  %53 = getelementptr inbounds %struct.VHeader_, ptr %52, i64 -1
  %54 = load i32, ptr %53, align 4
  store i32 %54, ptr %5, align 4
  br label %55

55:                                               ; preds = %50, %49
  %56 = load i32, ptr %5, align 4
  %57 = icmp ne i32 %56, 0
  br i1 %57, label %58, label %127

58:                                               ; preds = %55
  %59 = load ptr, ptr %14, align 8
  %60 = getelementptr inbounds %struct.Module_, ptr %59, i32 0, i32 14
  %61 = load ptr, ptr %60, align 8
  store ptr %61, ptr %9, align 8
  %62 = load ptr, ptr %9, align 8
  %63 = icmp ne ptr %62, null
  br i1 %63, label %65, label %64

64:                                               ; preds = %58
  store i32 0, ptr %8, align 4
  br label %70

65:                                               ; preds = %58
  %66 = load ptr, ptr %9, align 8
  store ptr %66, ptr %10, align 8
  %67 = load ptr, ptr %10, align 8
  %68 = getelementptr inbounds %struct.VHeader_, ptr %67, i64 -1
  %69 = load i32, ptr %68, align 4
  store i32 %69, ptr %8, align 4
  br label %70

70:                                               ; preds = %65, %64
  %71 = load i32, ptr %8, align 4
  store i32 %71, ptr %18, align 4
  %72 = load i32, ptr %18, align 4
  %73 = icmp ne i32 %72, 0
  br i1 %73, label %74, label %83

74:                                               ; preds = %70
  %75 = load ptr, ptr %14, align 8
  %76 = getelementptr inbounds %struct.Module_, ptr %75, i32 0, i32 14
  %77 = load ptr, ptr %76, align 8
  %78 = load i32, ptr %18, align 4
  %79 = sub i32 %78, 1
  %80 = zext i32 %79 to i64
  %81 = getelementptr inbounds ptr, ptr %77, i64 %80
  %82 = load ptr, ptr %81, align 8
  br label %84

83:                                               ; preds = %70
  br label %84

84:                                               ; preds = %83, %74
  %85 = phi ptr [ %82, %74 ], [ null, %83 ]
  store ptr %85, ptr %19, align 8
  %86 = load ptr, ptr %19, align 8
  store ptr %86, ptr %17, align 8
  %87 = load ptr, ptr %17, align 8
  %88 = getelementptr inbounds %struct.Decl_, ptr %87, i32 0, i32 8
  %89 = load ptr, ptr %88, align 8
  store ptr %89, ptr %20, align 8
  %90 = load ptr, ptr %20, align 8
  call void @sema_context_init(ptr noundef %21, ptr noundef %90)
  %91 = load ptr, ptr %14, align 8
  %92 = getelementptr inbounds %struct.Module_, ptr %91, i32 0, i32 14
  %93 = load ptr, ptr %92, align 8
  call void @vec_pop(ptr noundef %93)
  %94 = load ptr, ptr %17, align 8
  %95 = call zeroext i1 @analyse_func_body(ptr noundef %21, ptr noundef %94)
  br i1 %95, label %96, label %126

96:                                               ; preds = %84
  br label %97

97:                                               ; preds = %96
  %98 = load ptr, ptr %20, align 8
  %99 = getelementptr inbounds %struct.CompilationUnit_, ptr %98, i32 0, i32 5
  %100 = load ptr, ptr %99, align 8
  %101 = call ptr @expand_(ptr noundef %100, i64 noundef 8)
  store ptr %101, ptr %22, align 8
  %102 = load ptr, ptr %22, align 8
  %103 = load ptr, ptr %20, align 8
  %104 = getelementptr inbounds %struct.CompilationUnit_, ptr %103, i32 0, i32 5
  store ptr %102, ptr %104, align 8
  %105 = load ptr, ptr %17, align 8
  %106 = load ptr, ptr %20, align 8
  %107 = getelementptr inbounds %struct.CompilationUnit_, ptr %106, i32 0, i32 5
  %108 = load ptr, ptr %107, align 8
  %109 = load ptr, ptr %20, align 8
  %110 = getelementptr inbounds %struct.CompilationUnit_, ptr %109, i32 0, i32 5
  %111 = load ptr, ptr %110, align 8
  store ptr %111, ptr %12, align 8
  %112 = load ptr, ptr %12, align 8
  %113 = icmp ne ptr %112, null
  br i1 %113, label %115, label %114

114:                                              ; preds = %97
  store i32 0, ptr %11, align 4
  br label %120

115:                                              ; preds = %97
  %116 = load ptr, ptr %12, align 8
  store ptr %116, ptr %13, align 8
  %117 = load ptr, ptr %13, align 8
  %118 = getelementptr inbounds %struct.VHeader_, ptr %117, i64 -1
  %119 = load i32, ptr %118, align 4
  store i32 %119, ptr %11, align 4
  br label %120

120:                                              ; preds = %115, %114
  %121 = load i32, ptr %11, align 4
  %122 = sub i32 %121, 1
  %123 = zext i32 %122 to i64
  %124 = getelementptr inbounds ptr, ptr %108, i64 %123
  store ptr %105, ptr %124, align 8
  br label %125

125:                                              ; preds = %120
  br label %126

126:                                              ; preds = %125, %84
  call void @sema_context_destroy(ptr noundef %21)
  br label %43, !llvm.loop !41

127:                                              ; preds = %55
  br label %128

128:                                              ; preds = %127
  %129 = load i32, ptr %15, align 4
  %130 = add i32 %129, 1
  store i32 %130, ptr %15, align 4
  br label %38, !llvm.loop !42

131:                                              ; preds = %38
  br label %132

132:                                              ; preds = %131
  br label %133

133:                                              ; preds = %132
  ret void
}