; Function Attrs: nounwind uwtable
define dso_local void @sema_analysis_pass_lambda(ptr nocapture noundef readonly %0) local_unnamed_addr #1 {
  %2 = alloca %struct.SemaContext_, align 8
  %3 = getelementptr inbounds i8, ptr %0, i64 56
  %4 = load ptr, ptr %3, align 8
  %.not = icmp eq ptr %4, null
  br i1 %.not, label %._crit_edge, label %5

5:                                                ; preds = %1
  %6 = getelementptr inbounds i8, ptr %4, i64 -8
  %7 = load i32, ptr %6, align 4
  %.not56 = icmp eq i32 %7, 0
  br i1 %.not56, label %._crit_edge, label %.preheader.lr.ph

.preheader.lr.ph:                                 ; preds = %5
  %8 = getelementptr inbounds i8, ptr %0, i64 112
  %9 = load ptr, ptr %8, align 8
  %10 = icmp eq ptr %9, null
  br i1 %10, label %._crit_edge, label %.preheader

.preheader:                                       ; preds = %.preheader.lr.ph, %.thread
  %11 = phi ptr [ %88, %.thread ], [ %9, %.preheader.lr.ph ]
  %.03855 = phi i32 [ %89, %.thread ], [ 0, %.preheader.lr.ph ]
  %.not4353 = icmp eq ptr %11, null
  br i1 %.not4353, label %.thread, label %.lr.ph

.lr.ph:                                           ; preds = %.preheader, %86
  %12 = phi ptr [ %87, %86 ], [ %11, %.preheader ]
  %13 = getelementptr inbounds i8, ptr %12, i64 -8
  %14 = load i32, ptr %13, align 4
  %.not44 = icmp eq i32 %14, 0
  br i1 %.not44, label %.thread, label %15

15:                                               ; preds = %.lr.ph
  %16 = add i32 %14, -1
  %17 = zext i32 %16 to i64
  %18 = getelementptr inbounds ptr, ptr %12, i64 %17
  %19 = load ptr, ptr %18, align 8
  %20 = getelementptr inbounds i8, ptr %19, i64 56
  %21 = load ptr, ptr %20, align 8
  call void @sema_context_init(ptr noundef nonnull %2, ptr noundef %21) #11
  %22 = load ptr, ptr %8, align 8
  %23 = getelementptr inbounds i8, ptr %22, i64 -8
  %24 = load i32, ptr %23, align 4
  %25 = add i32 %24, -1
  store i32 %25, ptr %23, align 4
  %26 = getelementptr inbounds i8, ptr %19, i64 112
  %27 = load i32, ptr %26, align 8
  %.not.i = icmp eq i32 %27, 0
  br i1 %.not.i, label %52, label %28

28:                                               ; preds = %15
  %29 = getelementptr inbounds i8, ptr %19, i64 24
  %30 = load i64, ptr %29, align 8
  %31 = and i64 %30, 16384
  %.not14.i = icmp eq i64 %31, 0
  br i1 %.not14.i, label %35, label %32

32:                                               ; preds = %28
  %33 = getelementptr inbounds i8, ptr %19, i64 16
  %34 = load i64, ptr %33, align 8
  call void (i64, ptr, ...) @sema_error_at(i64 %34, ptr noundef nonnull @.str.27) #11
  br label %analyse_func_body.exit

35:                                               ; preds = %28
  %36 = getelementptr inbounds i8, ptr %19, i64 120
  %37 = load i16, ptr %36, align 8
  %38 = and i16 %37, 32
  %.not15.i = icmp eq i16 %38, 0
  br i1 %.not15.i, label %42, label %39

39:                                               ; preds = %35
  %40 = load i8, ptr getelementptr inbounds (%struct.BuildTarget, ptr @active_target, i64 0, i32 33), align 2
  %41 = trunc i8 %40 to i1
  br i1 %41, label %42, label %52

42:                                               ; preds = %39, %35
  %43 = and i16 %37, 16
  %.not16.i = icmp eq i16 %43, 0
  br i1 %.not16.i, label %47, label %44

44:                                               ; preds = %42
  %45 = load i8, ptr getelementptr inbounds (%struct.BuildTarget, ptr @active_target, i64 0, i32 32), align 1
  %46 = trunc i8 %45 to i1
  br i1 %46, label %47, label %52

47:                                               ; preds = %44, %42
  %48 = call zeroext i1 @sema_analyse_function_body(ptr noundef nonnull %2, ptr noundef nonnull %19) #11
  br i1 %48, label %52, label %analyse_func_body.exit

analyse_func_body.exit:                           ; preds = %32, %47
  %49 = load i64, ptr %29, align 8
  %50 = and i64 %49, -1024
  %51 = or disjoint i64 %50, 256
  store i64 %51, ptr %29, align 8
  br label %86

52:                                               ; preds = %15, %39, %44, %47
  %53 = getelementptr inbounds i8, ptr %21, i64 40
  %54 = load ptr, ptr %53, align 8
  %.not.i48 = icmp eq ptr %54, null
  br i1 %.not.i48, label %55, label %58

55:                                               ; preds = %52
  %56 = call ptr @calloc_arena(i64 noundef 72) #11
  %57 = getelementptr inbounds i8, ptr %56, i64 4
  store i32 8, ptr %57, align 4
  br label %60

58:                                               ; preds = %52
  %59 = getelementptr inbounds i8, ptr %54, i64 -8
  %.phi.trans.insert.i = getelementptr inbounds i8, ptr %54, i64 -4
  %.pre.i = load i32, ptr %.phi.trans.insert.i, align 4
  br label %60

60:                                               ; preds = %58, %55
  %61 = phi i32 [ %.pre.i, %58 ], [ 8, %55 ]
  %.0.i49 = phi ptr [ %59, %58 ], [ %56, %55 ]
  %62 = load i32, ptr %.0.i49, align 4
  %63 = icmp eq i32 %62, %61
  br i1 %63, label %64, label %78

64:                                               ; preds = %60
  %65 = getelementptr inbounds i8, ptr %.0.i49, i64 4
  %66 = shl i32 %61, 1
  %67 = zext i32 %66 to i64
  %68 = shl nuw nsw i64 %67, 3
  %69 = or disjoint i64 %68, 8
  %70 = call ptr @calloc_arena(i64 noundef %69) #11
  %71 = getelementptr inbounds i8, ptr %70, i64 4
  store i32 %66, ptr %71, align 4
  %72 = load i32, ptr %65, align 4
  %73 = zext i32 %72 to i64
  %74 = shl nuw nsw i64 %73, 3
  %75 = add nuw nsw i64 %74, 8
  call void @llvm.memcpy.p0.p0.i64(ptr noundef nonnull align 4 dereferenceable(1) %70, ptr noundef nonnull align 4 dereferenceable(1) %.0.i49, i64 %75, i1 false)
  %76 = load i32, ptr %71, align 4
  %77 = shl i32 %76, 1
  store i32 %77, ptr %71, align 4
  %.pre18.i = load i32, ptr %70, align 4
  br label %78

78:                                               ; preds = %60, %64
  %79 = phi i32 [ %.pre18.i, %64 ], [ %62, %60 ]
  %.1.i = phi ptr [ %70, %64 ], [ %.0.i49, %60 ]
  %80 = add i32 %79, 1
  store i32 %80, ptr %.1.i, align 4
  %81 = getelementptr inbounds i8, ptr %.1.i, i64 8
  store ptr %81, ptr %53, align 8
  %82 = load i32, ptr %.1.i, align 4
  %83 = add i32 %82, -1
  %84 = zext i32 %83 to i64
  %85 = getelementptr inbounds ptr, ptr %81, i64 %84
  store ptr %19, ptr %85, align 8
  br label %86

86:                                               ; preds = %analyse_func_body.exit, %78
  call void @sema_context_destroy(ptr noundef nonnull %2) #11
  %87 = load ptr, ptr %8, align 8
  %.not43 = icmp eq ptr %87, null
  br i1 %.not43, label %.thread, label %.lr.ph, !llvm.loop !41

.thread:                                          ; preds = %.lr.ph, %86, %.preheader
  %88 = phi ptr [ null, %.preheader ], [ %12, %.lr.ph ], [ null, %86 ]
  %89 = add nuw i32 %.03855, 1
  %exitcond.not = icmp eq i32 %89, %7
  br i1 %exitcond.not, label %._crit_edge, label %.preheader, !llvm.loop !42

._crit_edge:                                      ; preds = %.thread, %1, %.preheader.lr.ph, %5
  ret void
}